(dp1
I8
F2468
sI2057
F5295.9395960000002
sI4107
F3765.888899
sI12
F6185.9899999999998
sI16399
F4341.8991919999999
sI18
F5965.9898999999996
sI20
F6185.9799999999996
sI4123
F7180.8992969999999
sI28
F6185.9700000000003
sI30
F7462.9799000000003
sI42
F7462.9699000000001
sI2091
F6664.8793990000004
sI44
F6184.96
sI2093
F7404.9194969999999
sI50
F5745.9798000000001
sI4147
F7332.9094960000002
sI52
F6181.9499999999998
sI18491
F3541.878796
sI2109
F6972.8892990000004
sI22591
F6518.8790929999996
sI66
F7461.9598999999998
sI68
F6175.9399999999996
sI70
F7462.9697999999999
sI34891
F6293.8788919999997
sI76
F6165.9300000000003
sI78
F7462.9498999999996
sI2139
F7146.8991990000004
sI92
F6150.9200000000001
sI357
F7458.9396989999996
sI2146
F6881.8891000000003
sI99
F5964.9598990000004
sI102
F7458.9399000000003
sI24679
F6825.8890920000003
sI105
F7462.9697990000004
sI4205
F4205.9090980000001
sI110
F7461.9597999999996
sI8303
F4610.9192929999999
sI114
F7444.9299000000001
sI116
F6129.9099999999999
sI117
F5961.9498990000002
sI124
F6101.8999999999996
sI125
F2335.9797979999998
sI130
F7462.9498000000003
sI8323
F6552.879097
sI10373
F6605.8791959999999
sI2185
F7375.9192979999998
sI138
F7410.9198999999999
sI16523
F6459.878995
sI6851
F7191.8993950000004
sI148
F6065.8900000000003
sI6293
F7089.8990970000004
sI28823
F6314.8788930000001
sI153
F5955.939899
sI154
F7460.9597000000003
sI4255
F6937.8891979999999
sI27
F2401.9898990000002
sI164
F6020.8800000000001
sI165
F7461.9597990000002
sI170
F7458.9398000000001
sI171
F5945.9298989999998
sI174
F7341.9098999999997
sI175
F5745.9697980000001
sI182
F7462.9497000000001
sI2233
F7339.9095969999998
sI186
F7216.8999000000003
sI8381
F4809.9093940000002
sI190
F7444.9297999999999
sI715
F7461.9495980000002
sI20677
F7034.8990919999997
sI4301
F7391.9193960000002
sI2255
F6678.8795980000004
sI6355
F6469.8789980000001
sI8405
F3545.8787980000002
sI222
F7007.8899000000001
sI3451
F7325.9093970000004
sI10469
F4589.9092929999997
sI230
F7410.9197999999997
sI231
F7460.959699
sI238
F7458.9396999999999
sI242
F5305.9596000000001
sI27347
F6497.8790920000001
sI245
F5525.9696979999999
sI246
F6678.8798999999999
sI2299
F5285.9295959999999
sI255
F7458.9397989999998
sI261
F5909.9098990000002
sI385
F7459.9596979999997
sI6409
F7316.9093949999997
sI266
F7444.9296999999997
sI45
F5965.9798989999999
sI273
F7462.9496989999998
sI275
F5744.9597979999999
sI279
F5881.899899
sI285
F7444.9297989999995
sI286
F7461.9495999999999
sI2337
F6644.8792990000002
sI290
F7341.9098000000004
sI16687
F6345.8788960000002
sI4403
F6991.8893969999999
sI310
F7216.8998000000001
sI322
F7410.9197000000004
sI325
F5741.9497979999996
sI12617
F6793.8889959999997
sI2378
F6553.8791000000001
sI10571
F3981.8989959999999
sI333
F5845.8898989999998
sI6479
F7177.8992959999996
sI4433
F7207.899496
sI338
F5085.9494999999997
sI2387
F7214.8995969999996
sI343
F2269.969697
sI345
F7410.9197990000002
sI399
F7444.9296990000003
sI741
F7439.9294989999999
sI2405
F7002.8894979999995
sI5863
F6670.8794959999996
sI369
F5800.8798989999996
sI370
F7007.8897999999999
sI374
F7457.9395999999997
sI8569
F6640.8792960000001
sI10619
F6348.8788969999996
sI4477
F5185.889596
sI2431
F7449.939496
sI2945
F7181.8992980000003
sI12673
F7236.9091930000004
sI31117
F4085.889091
sI4495
F7090.8990979999999
sI406
F7341.9097000000002
sI410
F6678.8797999999997
sI2465
F7326.9093979999998
sI418
F7443.9296000000004
sI26011
F3730.8888929999998
sI425
F5735.9397980000003
sI429
F7461.9495989999996
sI434
F7216.8996999999999
sI435
F7341.909799
sI442
F7453.9395000000004
sI2197
F2137.9494949999998
sI75
F5745.9797989999997
sI10693
F4745.8893939999998
sI4551
F6349.8788990000003
sI6601
F6608.8791970000002
sI14801
F4480.879293
sI561
F7457.9395990000003
sI2523
F4205.9090990000004
sI2527
F4644.9292969999997
sI483
F7410.919699
sI39401
F3820.8789900000002
sI2542
F6469.8789999999999
sI33263
F6713.8889909999998
sI6647
F4830.9193939999996
sI2553
F6937.8891990000002
sI506
F7409.9196000000002
sI8959
F4781.899394
sI518
F7007.8896999999997
sI539
F5524.9596970000002
sI555
F7007.8897989999996
sI29233
F6413.8789919999999
sI4669
F7270.9091969999999
sI574
F6677.8797000000004
sI14911
F6787.8889950000003
sI578
F4865.9394000000002
sI6727
F3984.8989969999998
sI2635
F7201.8993979999996
sI98
F5525.9696999999996
sI2639
F7335.9094969999996
sI595
F7458.9396980000001
sI4693
F4635.9292949999999
sI598
F7405.9195
sI605
F5305.9595980000004
sI609
F7341.9096989999998
sI615
F6678.8797990000003
sI2665
F6674.8794980000002
sI4715
F6609.8791979999996
sI627
F7443.9295990000001
sI637
F5521.949697
sI638
F7340.9096
sI3179
F4861.9393959999998
sI646
F7429.9294
sI2697
F7090.8990990000002
sI651
F7216.8996989999996
sI6253
F4965.8894950000004
sI663
F7453.9394990000001
sI665
F7444.9296979999999
sI363
F5305.9595989999998
sI2717
F7435.9294959999997
sI682
F7215.8995999999997
sI1479
F7326.9093990000001
sI2737
F7394.9193969999997
sI2738
F3765.8888999999999
sI10933
F4195.909095
sI17081
F7055.899093
sI6845
F3765.8888980000002
sI8897
F6468.8789969999998
sI2755
F7306.9092979999996
sI4805
F3985.8989980000001
sI4807
F7371.919296
sI6859
F2005.9292929999999
sI722
F4645.9292999999998
sI15059
F3761.8888959999999
sI725
F5689.9097979999997
sI6877
F4415.9191950000004
sI2783
F5270.9195959999997
sI35557
F3865.8889899999999
sI465
F7216.8997989999998
sI23273
F3745.8888940000002
sI754
F7336.9094999999998
sI62197
F3380.8787889999999
sI759
F7409.9195989999998
sI31487
F3709.8888919999999
sI2821
F7210.8994970000003
sI775
F5661.8997980000004
sI777
F7007.8896990000003
sI26071
F4121.8990910000002
sI2829
F6609.879199
sI782
F7395.9193999999998
sI4879
F6663.8793969999997
sI6929
F4920.8794950000001
sI14467
F6917.8891940000003
sI39701
F3681.8888910000001
sI13079
F6549.8790959999997
sI8993
F4405.9191940000001
sI475
F5725.9297980000001
sI4901
F5029.9094949999999
sI806
F7211.8995000000004
sI814
F7006.8896000000004
sI4913
F2071.939394
sI11063
F6927.8891949999997
sI4921
F6971.8892969999997
sI8671
F7261.9091950000002
sI56129
F3600.8788890000001
sI2883
F3985.898999
sI845
F5085.9494979999999
sI847
F5304.959597
sI2873
F5075.9394949999996
sI861
F6677.8796990000001
sI4961
F5140.8795959999998
sI867
F4865.9393989999999
sI9061
F6654.8793949999999
sI874
F7375.9192999999996
sI147
F5525.9696990000002
sI4991
F7145.8991969999997
sI897
F7405.9194989999996
sI902
F6678.8796000000002
sI833
F5515.9396969999998
sI19343
F4149.9090919999999
sI1859
F5081.9494960000002
sI494
F7439.9295000000002
sI3567
F6553.8790989999998
sI925
F5625.8897980000002
sI24389
F1873.909091
sI931
F5505.9296969999996
sI935
F7457.9395979999999
sI6919
F6988.8893959999996
sI9139
F6962.8892949999999
sI11191
F4561.8992930000004
sI13243
F6624.8792940000003
sI957
F7340.9095989999996
sI962
F7002.8895000000002
sI1805
F4645.929298
sI969
F7429.9293989999996
sI43993
F6265.8788910000003
sI986
F7326.9093999999996
sI5083
F7385.9193949999999
sI507
F5085.9494990000003
sI1001
F7460.9495969999998
sI15341
F4369.9091920000001
sI3034
F6349.8788999999997
sI3059
F7374.9192970000004
sI1015
F7341.9096980000004
sI7163
F7296.9092950000004
sI1023
F7215.8995990000003
sI1025
F5580.8797979999999
sI1045
F7443.9295979999997
sI1054
F7201.8994000000002
sI1058
F4425.9192000000003
sI9251
F4201.9090960000003
sI1066
F6674.8795
sI19499
F6777.8889939999999
sI13357
F4525.8892930000002
sI8029
F6796.888997
sI9269
F7136.899195
sI1083
F4645.9292990000004
sI1085
F7216.8996980000002
sI3145
F6992.8893980000003
sI11339
F7251.9091939999998
sI1102
F7306.9093000000003
sI1105
F7453.9394979999997
sI3157
F6677.8795970000001
sI21689
F4260.8791920000003
sI29791
F1807.8989899999999
sI15457
F6543.8790950000002
sI21607
F6449.8789939999997
sI1131
F7336.9094990000003
sI19573
F4305.8891919999996
sI5239
F5001.8994949999997
sI3211
F5065.9294950000003
sI9361
F6933.8891960000001
sI3219
F6881.889099
sI1173
F7395.9193990000003
sI9367
F7286.909294
sI1178
F7181.8993
sI4199
F7419.9293950000001
sI1183
F5084.9494969999996
sI7337
F7267.9091959999996
sI5291
F6998.8894959999998
sI1209
F7211.8994990000001
sI25789
F6329.8788940000004
sI31939
F3510.8787929999999
sI1221
F7006.8895990000001
sI12493
F3975.898995
sI1235
F7439.9294980000004
sI3289
F7401.9194960000004
sI207
F5930.9198990000004
sI27869
F3901.898991
sI1258
F6992.8894
sI13547
F7111.8991930000002
sI1265
F7409.9195980000004
sI5365
F6881.8890979999996
sI2261
F7428.9293969999999
sI7429
F7355.9192940000003
sI3335
F7271.9091980000003
sI19721
F6339.8788949999998
sI1295
F7007.889698
sI1309
F7456.9395969999996
sI1311
F7375.9192990000001
sI21793
F6762.8889929999996
sI3362
F3545.8788
sI3367
F7001.8894970000001
sI1127
F5490.9196970000003
sI5423
F7322.909396
sI1587
F4425.9191989999999
sI1334
F7271.9092000000001
sI68921
F1675.878788
sI1353
F6678.8795989999999
sI5453
F6643.8792970000004
sI7511
F6880.8890970000002
sI52111
F3425.8787900000002
sI21853
F3535.8787950000001
sI455
F7462.9496980000004
sI9583
F3764.8888969999998
sI3441
F6797.8889989999998
sI1394
F6664.8793999999998
sI5491
F4845.9293939999998
sI575
F5710.9197979999999
sI1406
F6972.8892999999998
sI17797
F3755.888895
sI1421
F5469.9096970000001
sI1426
F7146.8991999999998
sI1435
F6676.8796979999997
sI3485
F6664.879398
sI7585
F6349.8788979999999
sI1443
F7002.8894989999999
sI1445
F4865.9393980000004
sI11687
F7080.8990949999998
sI3509
F5249.9095960000004
sI1463
F7442.9295970000003
sI3515
F6972.8892980000001
sI2294
F6797.8890000000001
sI42439
F3645.8888900000002
sI20387
F6846.8890929999998
sI1495
F7405.9194980000002
sI50653
F1741.8888890000001
sI3553
F7425.9293960000005
sI7657
F7171.8992950000002
sI3565
F7146.8991980000001
sI1519
F5441.8996969999998
sI7667
F6660.8793960000003
sI11767
F3544.8787969999998
sI17917
F6574.8791929999998
sI2645
F4425.9191979999996
sI1547
F7452.9394970000003
sI1558
F6644.8792999999996
sI11803
F6877.8890959999999
sI1573
F5301.9495960000004
sI1581
F7201.8993989999999
sI5681
F7365.9192949999997
sI15283
F7070.8990940000003
sI7733
F6968.8892960000003
sI1595
F7340.9095980000002
sI2849
F7005.8895970000003
sI1599
F6674.8794989999997
sI11849
F4700.8793939999996
sI1615
F7429.9293980000002
sI24149
F6434.8789930000003
sI22103
F3929.8989919999999
sI5735
F6797.8889980000004
sI3689
F7200.8993970000001
sI15979
F4170.9090930000002
sI48749
F3461.8787910000001
sI805
F7410.9196979999997
sI3703
F4424.9191970000002
sI13949
F6871.8890950000005
sI1682
F4205.9090999999999
sI3731
F6673.8794969999999
sI13981
F6465.8789960000004
sI16031
F6589.8791940000001
sI9889
F7086.8990960000001
sI7843
F7142.8991960000003
sI5797
F7197.8993959999998
sI1702
F6937.8891999999996
sI3751
F5221.8995960000002
sI1705
F7215.899598
sI3757
F4855.9393950000003
sI11951
F6952.8892939999996
sI34481
F4040.8790909999998
sI5819
F4421.9191959999998
sI1653
F7306.9092989999999
sI1729
F7438.9294970000001
sI3813
F6469.8789989999996
sI195
F7462.949799
sI2001
F7271.9091989999997
sI1771
F7408.9195970000001
sI20213
F6533.8790939999999
sI5887
F4204.9090969999997
sI1798
F7090.8990999999996
sI38663
F3489.878792
sI26381
F6741.8889920000001
sI3857
F7305.9092970000002
sI1813
F5405.8896969999996
sI2009
F5360.8796970000003
sI10013
F7161.8992939999998
sI16169
F6902.889193
sI3887
F5050.9194950000001
sI1331
F2203.9595960000001
sI3895
F6644.8792979999998
sI5945
F6553.8790980000003
sI18241
F6861.8890940000001
sI10051
F4390.9191929999997
sI5957
F6936.8891970000004
sI1767
F7181.8992989999997
sI18259
F3950.8989929999998
sI12121
F7126.8991939999996
sI1885
F7336.909498
sI1886
F6609.8792000000003
sI1887
F6992.8893989999997
sI63
F5965.9698989999997
sI1922
F3985.8989999999999
sI3971
F4641.9292960000002
sI12167
F1939.9191920000001
sI10127
F6634.8792949999997
sI5043
F3545.8787990000001
sI28577
F3525.8787940000002
sI1955
F7395.919398
sI6061
F7302.9092959999998
sI47027
F6229.87889
sI16337
F3965.8989940000001
sI14297
F4185.9090939999996
sI2015
F7211.8994979999998
sI12259
F6599.8791950000004
sI2023
F4864.9393970000001
sI8177
F6982.8893950000001
sI2035
F7006.8895979999998
sI6137
F4625.9292939999996
sI36859
F6385.8789909999996
s.